target datalayout = "e-m:e-p270:32:32-p271:32:32-p272:64:64-i64:64-i128:128-f80:128-n8:16:32:64-S128"
target triple = "x86_64-unknown-linux-gnu"

%"class.zmq::msg_t" = type { %union.anon.52 }
%union.anon.52 = type { %struct.anon }
%struct.anon = type { ptr, [34 x i8], i8, i8, i32, %"union.zmq::msg_t::group_t" }
%"union.zmq::msg_t::group_t" = type { %struct.anon.54 }
%struct.anon.54 = type { i8, ptr }

@stderr = external global ptr, align 8
@.str = private unnamed_addr constant [12 x i8] c"%s (%s:%d)\0A\00", align 1
@.str.1 = private unnamed_addr constant [104 x i8] c"generated/home/dtcxzyw/WorkSpace/Projects/compilers/llvm-opt-benchmark/bench/libzmq/libzmq/src/xsub.cpp\00", align 1

; Function Attrs: mustprogress uwtable
define void @_ZN3zmq6xsub_t17send_subscriptionEPhmPv(ptr noundef %data_, i64 noundef %size_, ptr noundef %arg_) #0 align 2 {
entry:
  %data_.addr = alloca ptr, align 8
  %size_.addr = alloca i64, align 8
  %arg_.addr = alloca ptr, align 8
  %pipe = alloca ptr, align 8
  %msg = alloca %"class.zmq::msg_t", align 8
  %rc = alloca i32, align 4
  %errstr = alloca ptr, align 8
  %sent = alloca i8, align 1
  store ptr %data_, ptr %data_.addr, align 8
  store i64 %size_, ptr %size_.addr, align 8
  store ptr %arg_, ptr %arg_.addr, align 8
  %0 = load ptr, ptr %arg_.addr, align 8
  store ptr %0, ptr %pipe, align 8
  %1 = load i64, ptr %size_.addr, align 8
  %2 = load ptr, ptr %data_.addr, align 8
  %call = call noundef i32 @_ZN3zmq5msg_t14init_subscribeEmPKh(ptr noundef nonnull align 8 dereferenceable(64) %msg, i64 noundef %1, ptr noundef %2)
  store i32 %call, ptr %rc, align 4
  br label %do.body

do.body:                                          ; preds = %entry
  %3 = load i32, ptr %rc, align 4
  %cmp = icmp eq i32 %3, 0
  %lnot = xor i1 %cmp, true
  br i1 %lnot, label %if.then, label %if.end

if.then:                                          ; preds = %do.body
  %call1 = call ptr @__errno_location() #9
  %4 = load i32, ptr %call1, align 4
  %call2 = call ptr @strerror(i32 noundef %4) #8
  store ptr %call2, ptr %errstr, align 8
  %5 = load ptr, ptr @stderr, align 8
  %6 = load ptr, ptr %errstr, align 8
  %call3 = call i32 (ptr, ptr, ...) @fprintf(ptr noundef %5, ptr noundef @.str, ptr noundef %6, ptr noundef @.str.1, i32 noundef 271)
  %7 = load ptr, ptr @stderr, align 8
  %call4 = call i32 @fflush(ptr noundef %7)
  %8 = load ptr, ptr %errstr, align 8
  call void @_ZN3zmq9zmq_abortEPKc(ptr noundef %8)
  br label %if.end

if.end:                                           ; preds = %if.then, %do.body
  br label %do.end

do.end:                                           ; preds = %if.end
  %9 = load ptr, ptr %pipe, align 8
  %call5 = call noundef zeroext i1 @_ZN3zmq6pipe_t5writeEPKNS_5msg_tE(ptr noundef nonnull align 8 dereferenceable(328) %9, ptr noundef %msg)
  %frombool = zext i1 %call5 to i8
  store i8 %frombool, ptr %sent, align 1
  %10 = load i8, ptr %sent, align 1
  %tobool = trunc i8 %10 to i1
  br i1 %tobool, label %if.end8, label %if.then6

if.then6:                                         ; preds = %do.end
  %call7 = call noundef i32 @_ZN3zmq5msg_t5closeEv(ptr noundef nonnull align 8 dereferenceable(64) %msg)
  br label %if.end8

if.end8:                                          ; preds = %if.then6, %do.end
  ret void
}