; Function Attrs: mustprogress uwtable
define void @_ZN3zmq6xsub_t17send_subscriptionEPhmPv(ptr noundef %data_, i64 noundef %size_, ptr noundef %arg_) #0 align 2 {
entry:
  %msg = alloca %"class.zmq::msg_t", align 8
  %call = call noundef i32 @_ZN3zmq5msg_t14init_subscribeEmPKh(ptr noundef nonnull align 8 dereferenceable(64) %msg, i64 noundef %size_, ptr noundef %data_)
  %cmp.not = icmp eq i32 %call, 0
  br i1 %cmp.not, label %do.end, label %if.then

if.then:                                          ; preds = %entry
  %call1 = tail call ptr @__errno_location() #12
  %0 = load i32, ptr %call1, align 4
  %call2 = call ptr @strerror(i32 noundef %0) #13
  %1 = load ptr, ptr @stderr, align 8
  %call3 = call i32 (ptr, ptr, ...) @fprintf(ptr noundef %1, ptr noundef nonnull @.str, ptr noundef %call2, ptr noundef nonnull @.str.1, i32 noundef 271) #14
  %2 = load ptr, ptr @stderr, align 8
  %call4 = call i32 @fflush(ptr noundef %2)
  call void @_ZN3zmq9zmq_abortEPKc(ptr noundef %call2)
  br label %do.end

do.end:                                           ; preds = %entry, %if.then
  %call5 = call noundef zeroext i1 @_ZN3zmq6pipe_t5writeEPKNS_5msg_tE(ptr noundef nonnull align 8 dereferenceable(328) %arg_, ptr noundef nonnull %msg)
  br i1 %call5, label %if.end8, label %if.then6

if.then6:                                         ; preds = %do.end
  %call7 = call noundef i32 @_ZN3zmq5msg_t5closeEv(ptr noundef nonnull align 8 dereferenceable(64) %msg)
  br label %if.end8

if.end8:                                          ; preds = %if.then6, %do.end
  ret void
}